target datalayout = "e-m:e-p270:32:32-p271:32:32-p272:64:64-i64:64-i128:128-f80:128-n8:16:32:64-S128"
target triple = "x86_64-unknown-linux-gnu"

@.str.2 = private unnamed_addr constant [20 x i8] c"<LogCameraTransform\00", align 1
@.str.3 = private unnamed_addr constant [12 x i8] c" direction=\00", align 1
@.str.4 = private unnamed_addr constant [8 x i8] c", base=\00", align 1
@.str.5 = private unnamed_addr constant [16 x i8] c", logSideSlope=\00", align 1
@.str.6 = private unnamed_addr constant [2 x i8] c" \00", align 1
@.str.7 = private unnamed_addr constant [17 x i8] c", logSideOffset=\00", align 1
@.str.8 = private unnamed_addr constant [16 x i8] c", linSideSlope=\00", align 1
@.str.9 = private unnamed_addr constant [17 x i8] c", linSideOffset=\00", align 1
@.str.10 = private unnamed_addr constant [16 x i8] c", linSideBreak=\00", align 1
@.str.11 = private unnamed_addr constant [15 x i8] c", linearSlope=\00", align 1
@.str.12 = private unnamed_addr constant [2 x i8] c">\00", align 1

; Function Attrs: mustprogress uwtable
define noundef nonnull align 8 dereferenceable(8) ptr @_ZN19OpenColorIO_v2_4devlsERSoRKNS_18LogCameraTransformE(ptr noundef nonnull align 8 dereferenceable(8) %os, ptr noundef nonnull align 8 dereferenceable(8) %t) #0 {
entry:
  %os.addr = alloca ptr, align 8
  %t.addr = alloca ptr, align 8
  %values = alloca [3 x double], align 16
  store ptr %os, ptr %os.addr, align 8
  store ptr %t, ptr %t.addr, align 8
  %0 = load ptr, ptr %os.addr, align 8
  %call = call noundef nonnull align 8 dereferenceable(8) ptr @_ZStlsISt11char_traitsIcEERSt13basic_ostreamIcT_ES5_PKc(ptr noundef nonnull align 8 dereferenceable(8) %0, ptr noundef @.str.2)
  %1 = load ptr, ptr %os.addr, align 8
  %call1 = call noundef nonnull align 8 dereferenceable(8) ptr @_ZStlsISt11char_traitsIcEERSt13basic_ostreamIcT_ES5_PKc(ptr noundef nonnull align 8 dereferenceable(8) %1, ptr noundef @.str.3)
  %2 = load ptr, ptr %t.addr, align 8
  %vtable = load ptr, ptr %2, align 8
  %vfn = getelementptr inbounds ptr, ptr %vtable, i64 1
  %3 = load ptr, ptr %vfn, align 8
  %call2 = call noundef i32 %3(ptr noundef nonnull align 8 dereferenceable(8) %2) #14
  %call3 = call noundef ptr @_ZN19OpenColorIO_v2_4dev26TransformDirectionToStringENS_18TransformDirectionE(i32 noundef %call2)
  %call4 = call noundef nonnull align 8 dereferenceable(8) ptr @_ZStlsISt11char_traitsIcEERSt13basic_ostreamIcT_ES5_PKc(ptr noundef nonnull align 8 dereferenceable(8) %call1, ptr noundef %call3)
  %4 = load ptr, ptr %os.addr, align 8
  %call5 = call noundef nonnull align 8 dereferenceable(8) ptr @_ZStlsISt11char_traitsIcEERSt13basic_ostreamIcT_ES5_PKc(ptr noundef nonnull align 8 dereferenceable(8) %4, ptr noundef @.str.4)
  %5 = load ptr, ptr %t.addr, align 8
  %vtable6 = load ptr, ptr %5, align 8
  %vfn7 = getelementptr inbounds ptr, ptr %vtable6, i64 10
  %6 = load ptr, ptr %vfn7, align 8
  %call8 = call noundef double %6(ptr noundef nonnull align 8 dereferenceable(8) %5) #14
  %call9 = call noundef nonnull align 8 dereferenceable(8) ptr @_ZNSolsEd(ptr noundef nonnull align 8 dereferenceable(8) %call5, double noundef %call8)
  %7 = load ptr, ptr %t.addr, align 8
  %vtable10 = load ptr, ptr %7, align 8
  %vfn11 = getelementptr inbounds ptr, ptr %vtable10, i64 12
  %8 = load ptr, ptr %vfn11, align 8
  call void %8(ptr noundef nonnull align 8 dereferenceable(8) %7, ptr noundef nonnull align 8 dereferenceable(24) %values) #14
  %9 = load ptr, ptr %os.addr, align 8
  %call12 = call noundef nonnull align 8 dereferenceable(8) ptr @_ZStlsISt11char_traitsIcEERSt13basic_ostreamIcT_ES5_PKc(ptr noundef nonnull align 8 dereferenceable(8) %9, ptr noundef @.str.5)
  %arrayidx = getelementptr inbounds [3 x double], ptr %values, i64 0, i64 0
  %10 = load double, ptr %arrayidx, align 16
  %call13 = call noundef nonnull align 8 dereferenceable(8) ptr @_ZNSolsEd(ptr noundef nonnull align 8 dereferenceable(8) %call12, double noundef %10)
  %call14 = call noundef nonnull align 8 dereferenceable(8) ptr @_ZStlsISt11char_traitsIcEERSt13basic_ostreamIcT_ES5_PKc(ptr noundef nonnull align 8 dereferenceable(8) %call13, ptr noundef @.str.6)
  %arrayidx15 = getelementptr inbounds [3 x double], ptr %values, i64 0, i64 1
  %11 = load double, ptr %arrayidx15, align 8
  %call16 = call noundef nonnull align 8 dereferenceable(8) ptr @_ZNSolsEd(ptr noundef nonnull align 8 dereferenceable(8) %call14, double noundef %11)
  %call17 = call noundef nonnull align 8 dereferenceable(8) ptr @_ZStlsISt11char_traitsIcEERSt13basic_ostreamIcT_ES5_PKc(ptr noundef nonnull align 8 dereferenceable(8) %call16, ptr noundef @.str.6)
  %arrayidx18 = getelementptr inbounds [3 x double], ptr %values, i64 0, i64 2
  %12 = load double, ptr %arrayidx18, align 16
  %call19 = call noundef nonnull align 8 dereferenceable(8) ptr @_ZNSolsEd(ptr noundef nonnull align 8 dereferenceable(8) %call17, double noundef %12)
  %13 = load ptr, ptr %t.addr, align 8
  %vtable20 = load ptr, ptr %13, align 8
  %vfn21 = getelementptr inbounds ptr, ptr %vtable20, i64 14
  %14 = load ptr, ptr %vfn21, align 8
  call void %14(ptr noundef nonnull align 8 dereferenceable(8) %13, ptr noundef nonnull align 8 dereferenceable(24) %values) #14
  %15 = load ptr, ptr %os.addr, align 8
  %call22 = call noundef nonnull align 8 dereferenceable(8) ptr @_ZStlsISt11char_traitsIcEERSt13basic_ostreamIcT_ES5_PKc(ptr noundef nonnull align 8 dereferenceable(8) %15, ptr noundef @.str.7)
  %arrayidx23 = getelementptr inbounds [3 x double], ptr %values, i64 0, i64 0
  %16 = load double, ptr %arrayidx23, align 16
  %call24 = call noundef nonnull align 8 dereferenceable(8) ptr @_ZNSolsEd(ptr noundef nonnull align 8 dereferenceable(8) %call22, double noundef %16)
  %call25 = call noundef nonnull align 8 dereferenceable(8) ptr @_ZStlsISt11char_traitsIcEERSt13basic_ostreamIcT_ES5_PKc(ptr noundef nonnull align 8 dereferenceable(8) %call24, ptr noundef @.str.6)
  %arrayidx26 = getelementptr inbounds [3 x double], ptr %values, i64 0, i64 1
  %17 = load double, ptr %arrayidx26, align 8
  %call27 = call noundef nonnull align 8 dereferenceable(8) ptr @_ZNSolsEd(ptr noundef nonnull align 8 dereferenceable(8) %call25, double noundef %17)
  %call28 = call noundef nonnull align 8 dereferenceable(8) ptr @_ZStlsISt11char_traitsIcEERSt13basic_ostreamIcT_ES5_PKc(ptr noundef nonnull align 8 dereferenceable(8) %call27, ptr noundef @.str.6)
  %arrayidx29 = getelementptr inbounds [3 x double], ptr %values, i64 0, i64 2
  %18 = load double, ptr %arrayidx29, align 16
  %call30 = call noundef nonnull align 8 dereferenceable(8) ptr @_ZNSolsEd(ptr noundef nonnull align 8 dereferenceable(8) %call28, double noundef %18)
  %19 = load ptr, ptr %t.addr, align 8
  %vtable31 = load ptr, ptr %19, align 8
  %vfn32 = getelementptr inbounds ptr, ptr %vtable31, i64 16
  %20 = load ptr, ptr %vfn32, align 8
  call void %20(ptr noundef nonnull align 8 dereferenceable(8) %19, ptr noundef nonnull align 8 dereferenceable(24) %values) #14
  %21 = load ptr, ptr %os.addr, align 8
  %call33 = call noundef nonnull align 8 dereferenceable(8) ptr @_ZStlsISt11char_traitsIcEERSt13basic_ostreamIcT_ES5_PKc(ptr noundef nonnull align 8 dereferenceable(8) %21, ptr noundef @.str.8)
  %arrayidx34 = getelementptr inbounds [3 x double], ptr %values, i64 0, i64 0
  %22 = load double, ptr %arrayidx34, align 16
  %call35 = call noundef nonnull align 8 dereferenceable(8) ptr @_ZNSolsEd(ptr noundef nonnull align 8 dereferenceable(8) %call33, double noundef %22)
  %call36 = call noundef nonnull align 8 dereferenceable(8) ptr @_ZStlsISt11char_traitsIcEERSt13basic_ostreamIcT_ES5_PKc(ptr noundef nonnull align 8 dereferenceable(8) %call35, ptr noundef @.str.6)
  %arrayidx37 = getelementptr inbounds [3 x double], ptr %values, i64 0, i64 1
  %23 = load double, ptr %arrayidx37, align 8
  %call38 = call noundef nonnull align 8 dereferenceable(8) ptr @_ZNSolsEd(ptr noundef nonnull align 8 dereferenceable(8) %call36, double noundef %23)
  %call39 = call noundef nonnull align 8 dereferenceable(8) ptr @_ZStlsISt11char_traitsIcEERSt13basic_ostreamIcT_ES5_PKc(ptr noundef nonnull align 8 dereferenceable(8) %call38, ptr noundef @.str.6)
  %arrayidx40 = getelementptr inbounds [3 x double], ptr %values, i64 0, i64 2
  %24 = load double, ptr %arrayidx40, align 16
  %call41 = call noundef nonnull align 8 dereferenceable(8) ptr @_ZNSolsEd(ptr noundef nonnull align 8 dereferenceable(8) %call39, double noundef %24)
  %25 = load ptr, ptr %t.addr, align 8
  %vtable42 = load ptr, ptr %25, align 8
  %vfn43 = getelementptr inbounds ptr, ptr %vtable42, i64 18
  %26 = load ptr, ptr %vfn43, align 8
  call void %26(ptr noundef nonnull align 8 dereferenceable(8) %25, ptr noundef nonnull align 8 dereferenceable(24) %values) #14
  %27 = load ptr, ptr %os.addr, align 8
  %call44 = call noundef nonnull align 8 dereferenceable(8) ptr @_ZStlsISt11char_traitsIcEERSt13basic_ostreamIcT_ES5_PKc(ptr noundef nonnull align 8 dereferenceable(8) %27, ptr noundef @.str.9)
  %arrayidx45 = getelementptr inbounds [3 x double], ptr %values, i64 0, i64 0
  %28 = load double, ptr %arrayidx45, align 16
  %call46 = call noundef nonnull align 8 dereferenceable(8) ptr @_ZNSolsEd(ptr noundef nonnull align 8 dereferenceable(8) %call44, double noundef %28)
  %call47 = call noundef nonnull align 8 dereferenceable(8) ptr @_ZStlsISt11char_traitsIcEERSt13basic_ostreamIcT_ES5_PKc(ptr noundef nonnull align 8 dereferenceable(8) %call46, ptr noundef @.str.6)
  %arrayidx48 = getelementptr inbounds [3 x double], ptr %values, i64 0, i64 1
  %29 = load double, ptr %arrayidx48, align 8
  %call49 = call noundef nonnull align 8 dereferenceable(8) ptr @_ZNSolsEd(ptr noundef nonnull align 8 dereferenceable(8) %call47, double noundef %29)
  %call50 = call noundef nonnull align 8 dereferenceable(8) ptr @_ZStlsISt11char_traitsIcEERSt13basic_ostreamIcT_ES5_PKc(ptr noundef nonnull align 8 dereferenceable(8) %call49, ptr noundef @.str.6)
  %arrayidx51 = getelementptr inbounds [3 x double], ptr %values, i64 0, i64 2
  %30 = load double, ptr %arrayidx51, align 16
  %call52 = call noundef nonnull align 8 dereferenceable(8) ptr @_ZNSolsEd(ptr noundef nonnull align 8 dereferenceable(8) %call50, double noundef %30)
  %31 = load ptr, ptr %t.addr, align 8
  %vtable53 = load ptr, ptr %31, align 8
  %vfn54 = getelementptr inbounds ptr, ptr %vtable53, i64 20
  %32 = load ptr, ptr %vfn54, align 8
  call void %32(ptr noundef nonnull align 8 dereferenceable(8) %31, ptr noundef nonnull align 8 dereferenceable(24) %values) #14
  %33 = load ptr, ptr %os.addr, align 8
  %call55 = call noundef nonnull align 8 dereferenceable(8) ptr @_ZStlsISt11char_traitsIcEERSt13basic_ostreamIcT_ES5_PKc(ptr noundef nonnull align 8 dereferenceable(8) %33, ptr noundef @.str.10)
  %arrayidx56 = getelementptr inbounds [3 x double], ptr %values, i64 0, i64 0
  %34 = load double, ptr %arrayidx56, align 16
  %call57 = call noundef nonnull align 8 dereferenceable(8) ptr @_ZNSolsEd(ptr noundef nonnull align 8 dereferenceable(8) %call55, double noundef %34)
  %call58 = call noundef nonnull align 8 dereferenceable(8) ptr @_ZStlsISt11char_traitsIcEERSt13basic_ostreamIcT_ES5_PKc(ptr noundef nonnull align 8 dereferenceable(8) %call57, ptr noundef @.str.6)
  %arrayidx59 = getelementptr inbounds [3 x double], ptr %values, i64 0, i64 1
  %35 = load double, ptr %arrayidx59, align 8
  %call60 = call noundef nonnull align 8 dereferenceable(8) ptr @_ZNSolsEd(ptr noundef nonnull align 8 dereferenceable(8) %call58, double noundef %35)
  %call61 = call noundef nonnull align 8 dereferenceable(8) ptr @_ZStlsISt11char_traitsIcEERSt13basic_ostreamIcT_ES5_PKc(ptr noundef nonnull align 8 dereferenceable(8) %call60, ptr noundef @.str.6)
  %arrayidx62 = getelementptr inbounds [3 x double], ptr %values, i64 0, i64 2
  %36 = load double, ptr %arrayidx62, align 16
  %call63 = call noundef nonnull align 8 dereferenceable(8) ptr @_ZNSolsEd(ptr noundef nonnull align 8 dereferenceable(8) %call61, double noundef %36)
  %37 = load ptr, ptr %t.addr, align 8
  %vtable64 = load ptr, ptr %37, align 8
  %vfn65 = getelementptr inbounds ptr, ptr %vtable64, i64 22
  %38 = load ptr, ptr %vfn65, align 8
  %call66 = call noundef zeroext i1 %38(ptr noundef nonnull align 8 dereferenceable(8) %37, ptr noundef nonnull align 8 dereferenceable(24) %values)
  br i1 %call66, label %if.then, label %if.end

if.then:                                          ; preds = %entry
  %39 = load ptr, ptr %os.addr, align 8
  %call67 = call noundef nonnull align 8 dereferenceable(8) ptr @_ZStlsISt11char_traitsIcEERSt13basic_ostreamIcT_ES5_PKc(ptr noundef nonnull align 8 dereferenceable(8) %39, ptr noundef @.str.11)
  %arrayidx68 = getelementptr inbounds [3 x double], ptr %values, i64 0, i64 0
  %40 = load double, ptr %arrayidx68, align 16
  %call69 = call noundef nonnull align 8 dereferenceable(8) ptr @_ZNSolsEd(ptr noundef nonnull align 8 dereferenceable(8) %call67, double noundef %40)
  %call70 = call noundef nonnull align 8 dereferenceable(8) ptr @_ZStlsISt11char_traitsIcEERSt13basic_ostreamIcT_ES5_PKc(ptr noundef nonnull align 8 dereferenceable(8) %call69, ptr noundef @.str.6)
  %arrayidx71 = getelementptr inbounds [3 x double], ptr %values, i64 0, i64 1
  %41 = load double, ptr %arrayidx71, align 8
  %call72 = call noundef nonnull align 8 dereferenceable(8) ptr @_ZNSolsEd(ptr noundef nonnull align 8 dereferenceable(8) %call70, double noundef %41)
  %call73 = call noundef nonnull align 8 dereferenceable(8) ptr @_ZStlsISt11char_traitsIcEERSt13basic_ostreamIcT_ES5_PKc(ptr noundef nonnull align 8 dereferenceable(8) %call72, ptr noundef @.str.6)
  %arrayidx74 = getelementptr inbounds [3 x double], ptr %values, i64 0, i64 2
  %42 = load double, ptr %arrayidx74, align 16
  %call75 = call noundef nonnull align 8 dereferenceable(8) ptr @_ZNSolsEd(ptr noundef nonnull align 8 dereferenceable(8) %call73, double noundef %42)
  br label %if.end

if.end:                                           ; preds = %if.then, %entry
  %43 = load ptr, ptr %os.addr, align 8
  %call76 = call noundef nonnull align 8 dereferenceable(8) ptr @_ZStlsISt11char_traitsIcEERSt13basic_ostreamIcT_ES5_PKc(ptr noundef nonnull align 8 dereferenceable(8) %43, ptr noundef @.str.12)
  %44 = load ptr, ptr %os.addr, align 8
  ret ptr %44
}