; Function Attrs: mustprogress uwtable
define noundef nonnull align 8 dereferenceable(8) ptr @_ZN19OpenColorIO_v2_4devlsERSoRKNS_18LogCameraTransformE(ptr noundef nonnull returned align 8 dereferenceable(8) %os, ptr noundef nonnull align 8 dereferenceable(8) %t) local_unnamed_addr #0 {
entry:
  %values = alloca [3 x double], align 16
  %call = tail call noundef nonnull align 8 dereferenceable(8) ptr @_ZStlsISt11char_traitsIcEERSt13basic_ostreamIcT_ES5_PKc(ptr noundef nonnull align 8 dereferenceable(8) %os, ptr noundef nonnull @.str.2)
  %call1 = tail call noundef nonnull align 8 dereferenceable(8) ptr @_ZStlsISt11char_traitsIcEERSt13basic_ostreamIcT_ES5_PKc(ptr noundef nonnull align 8 dereferenceable(8) %os, ptr noundef nonnull @.str.3)
  %vtable = load ptr, ptr %t, align 8
  %vfn = getelementptr inbounds i8, ptr %vtable, i64 8
  %0 = load ptr, ptr %vfn, align 8
  %call2 = tail call noundef i32 %0(ptr noundef nonnull align 8 dereferenceable(8) %t) #16
  %call3 = tail call noundef ptr @_ZN19OpenColorIO_v2_4dev26TransformDirectionToStringENS_18TransformDirectionE(i32 noundef %call2)
  %call4 = tail call noundef nonnull align 8 dereferenceable(8) ptr @_ZStlsISt11char_traitsIcEERSt13basic_ostreamIcT_ES5_PKc(ptr noundef nonnull align 8 dereferenceable(8) %call1, ptr noundef %call3)
  %call5 = tail call noundef nonnull align 8 dereferenceable(8) ptr @_ZStlsISt11char_traitsIcEERSt13basic_ostreamIcT_ES5_PKc(ptr noundef nonnull align 8 dereferenceable(8) %os, ptr noundef nonnull @.str.4)
  %vtable6 = load ptr, ptr %t, align 8
  %vfn7 = getelementptr inbounds i8, ptr %vtable6, i64 80
  %1 = load ptr, ptr %vfn7, align 8
  %call8 = tail call noundef double %1(ptr noundef nonnull align 8 dereferenceable(8) %t) #16
  %call9 = tail call noundef nonnull align 8 dereferenceable(8) ptr @_ZNSolsEd(ptr noundef nonnull align 8 dereferenceable(8) %call5, double noundef %call8)
  %vtable10 = load ptr, ptr %t, align 8
  %vfn11 = getelementptr inbounds i8, ptr %vtable10, i64 96
  %2 = load ptr, ptr %vfn11, align 8
  call void %2(ptr noundef nonnull align 8 dereferenceable(8) %t, ptr noundef nonnull align 8 dereferenceable(24) %values) #16
  %call12 = call noundef nonnull align 8 dereferenceable(8) ptr @_ZStlsISt11char_traitsIcEERSt13basic_ostreamIcT_ES5_PKc(ptr noundef nonnull align 8 dereferenceable(8) %os, ptr noundef nonnull @.str.5)
  %3 = load double, ptr %values, align 16
  %call13 = call noundef nonnull align 8 dereferenceable(8) ptr @_ZNSolsEd(ptr noundef nonnull align 8 dereferenceable(8) %call12, double noundef %3)
  %call14 = call noundef nonnull align 8 dereferenceable(8) ptr @_ZStlsISt11char_traitsIcEERSt13basic_ostreamIcT_ES5_PKc(ptr noundef nonnull align 8 dereferenceable(8) %call13, ptr noundef nonnull @.str.6)
  %arrayidx15 = getelementptr inbounds i8, ptr %values, i64 8
  %4 = load double, ptr %arrayidx15, align 8
  %call16 = call noundef nonnull align 8 dereferenceable(8) ptr @_ZNSolsEd(ptr noundef nonnull align 8 dereferenceable(8) %call14, double noundef %4)
  %call17 = call noundef nonnull align 8 dereferenceable(8) ptr @_ZStlsISt11char_traitsIcEERSt13basic_ostreamIcT_ES5_PKc(ptr noundef nonnull align 8 dereferenceable(8) %call16, ptr noundef nonnull @.str.6)
  %arrayidx18 = getelementptr inbounds i8, ptr %values, i64 16
  %5 = load double, ptr %arrayidx18, align 16
  %call19 = call noundef nonnull align 8 dereferenceable(8) ptr @_ZNSolsEd(ptr noundef nonnull align 8 dereferenceable(8) %call17, double noundef %5)
  %vtable20 = load ptr, ptr %t, align 8
  %vfn21 = getelementptr inbounds i8, ptr %vtable20, i64 112
  %6 = load ptr, ptr %vfn21, align 8
  call void %6(ptr noundef nonnull align 8 dereferenceable(8) %t, ptr noundef nonnull align 8 dereferenceable(24) %values) #16
  %call22 = call noundef nonnull align 8 dereferenceable(8) ptr @_ZStlsISt11char_traitsIcEERSt13basic_ostreamIcT_ES5_PKc(ptr noundef nonnull align 8 dereferenceable(8) %os, ptr noundef nonnull @.str.7)
  %7 = load double, ptr %values, align 16
  %call24 = call noundef nonnull align 8 dereferenceable(8) ptr @_ZNSolsEd(ptr noundef nonnull align 8 dereferenceable(8) %call22, double noundef %7)
  %call25 = call noundef nonnull align 8 dereferenceable(8) ptr @_ZStlsISt11char_traitsIcEERSt13basic_ostreamIcT_ES5_PKc(ptr noundef nonnull align 8 dereferenceable(8) %call24, ptr noundef nonnull @.str.6)
  %8 = load double, ptr %arrayidx15, align 8
  %call27 = call noundef nonnull align 8 dereferenceable(8) ptr @_ZNSolsEd(ptr noundef nonnull align 8 dereferenceable(8) %call25, double noundef %8)
  %call28 = call noundef nonnull align 8 dereferenceable(8) ptr @_ZStlsISt11char_traitsIcEERSt13basic_ostreamIcT_ES5_PKc(ptr noundef nonnull align 8 dereferenceable(8) %call27, ptr noundef nonnull @.str.6)
  %9 = load double, ptr %arrayidx18, align 16
  %call30 = call noundef nonnull align 8 dereferenceable(8) ptr @_ZNSolsEd(ptr noundef nonnull align 8 dereferenceable(8) %call28, double noundef %9)
  %vtable31 = load ptr, ptr %t, align 8
  %vfn32 = getelementptr inbounds i8, ptr %vtable31, i64 128
  %10 = load ptr, ptr %vfn32, align 8
  call void %10(ptr noundef nonnull align 8 dereferenceable(8) %t, ptr noundef nonnull align 8 dereferenceable(24) %values) #16
  %call33 = call noundef nonnull align 8 dereferenceable(8) ptr @_ZStlsISt11char_traitsIcEERSt13basic_ostreamIcT_ES5_PKc(ptr noundef nonnull align 8 dereferenceable(8) %os, ptr noundef nonnull @.str.8)
  %11 = load double, ptr %values, align 16
  %call35 = call noundef nonnull align 8 dereferenceable(8) ptr @_ZNSolsEd(ptr noundef nonnull align 8 dereferenceable(8) %call33, double noundef %11)
  %call36 = call noundef nonnull align 8 dereferenceable(8) ptr @_ZStlsISt11char_traitsIcEERSt13basic_ostreamIcT_ES5_PKc(ptr noundef nonnull align 8 dereferenceable(8) %call35, ptr noundef nonnull @.str.6)
  %12 = load double, ptr %arrayidx15, align 8
  %call38 = call noundef nonnull align 8 dereferenceable(8) ptr @_ZNSolsEd(ptr noundef nonnull align 8 dereferenceable(8) %call36, double noundef %12)
  %call39 = call noundef nonnull align 8 dereferenceable(8) ptr @_ZStlsISt11char_traitsIcEERSt13basic_ostreamIcT_ES5_PKc(ptr noundef nonnull align 8 dereferenceable(8) %call38, ptr noundef nonnull @.str.6)
  %13 = load double, ptr %arrayidx18, align 16
  %call41 = call noundef nonnull align 8 dereferenceable(8) ptr @_ZNSolsEd(ptr noundef nonnull align 8 dereferenceable(8) %call39, double noundef %13)
  %vtable42 = load ptr, ptr %t, align 8
  %vfn43 = getelementptr inbounds i8, ptr %vtable42, i64 144
  %14 = load ptr, ptr %vfn43, align 8
  call void %14(ptr noundef nonnull align 8 dereferenceable(8) %t, ptr noundef nonnull align 8 dereferenceable(24) %values) #16
  %call44 = call noundef nonnull align 8 dereferenceable(8) ptr @_ZStlsISt11char_traitsIcEERSt13basic_ostreamIcT_ES5_PKc(ptr noundef nonnull align 8 dereferenceable(8) %os, ptr noundef nonnull @.str.9)
  %15 = load double, ptr %values, align 16
  %call46 = call noundef nonnull align 8 dereferenceable(8) ptr @_ZNSolsEd(ptr noundef nonnull align 8 dereferenceable(8) %call44, double noundef %15)
  %call47 = call noundef nonnull align 8 dereferenceable(8) ptr @_ZStlsISt11char_traitsIcEERSt13basic_ostreamIcT_ES5_PKc(ptr noundef nonnull align 8 dereferenceable(8) %call46, ptr noundef nonnull @.str.6)
  %16 = load double, ptr %arrayidx15, align 8
  %call49 = call noundef nonnull align 8 dereferenceable(8) ptr @_ZNSolsEd(ptr noundef nonnull align 8 dereferenceable(8) %call47, double noundef %16)
  %call50 = call noundef nonnull align 8 dereferenceable(8) ptr @_ZStlsISt11char_traitsIcEERSt13basic_ostreamIcT_ES5_PKc(ptr noundef nonnull align 8 dereferenceable(8) %call49, ptr noundef nonnull @.str.6)
  %17 = load double, ptr %arrayidx18, align 16
  %call52 = call noundef nonnull align 8 dereferenceable(8) ptr @_ZNSolsEd(ptr noundef nonnull align 8 dereferenceable(8) %call50, double noundef %17)
  %vtable53 = load ptr, ptr %t, align 8
  %vfn54 = getelementptr inbounds i8, ptr %vtable53, i64 160
  %18 = load ptr, ptr %vfn54, align 8
  call void %18(ptr noundef nonnull align 8 dereferenceable(8) %t, ptr noundef nonnull align 8 dereferenceable(24) %values) #16
  %call55 = call noundef nonnull align 8 dereferenceable(8) ptr @_ZStlsISt11char_traitsIcEERSt13basic_ostreamIcT_ES5_PKc(ptr noundef nonnull align 8 dereferenceable(8) %os, ptr noundef nonnull @.str.10)
  %19 = load double, ptr %values, align 16
  %call57 = call noundef nonnull align 8 dereferenceable(8) ptr @_ZNSolsEd(ptr noundef nonnull align 8 dereferenceable(8) %call55, double noundef %19)
  %call58 = call noundef nonnull align 8 dereferenceable(8) ptr @_ZStlsISt11char_traitsIcEERSt13basic_ostreamIcT_ES5_PKc(ptr noundef nonnull align 8 dereferenceable(8) %call57, ptr noundef nonnull @.str.6)
  %20 = load double, ptr %arrayidx15, align 8
  %call60 = call noundef nonnull align 8 dereferenceable(8) ptr @_ZNSolsEd(ptr noundef nonnull align 8 dereferenceable(8) %call58, double noundef %20)
  %call61 = call noundef nonnull align 8 dereferenceable(8) ptr @_ZStlsISt11char_traitsIcEERSt13basic_ostreamIcT_ES5_PKc(ptr noundef nonnull align 8 dereferenceable(8) %call60, ptr noundef nonnull @.str.6)
  %21 = load double, ptr %arrayidx18, align 16
  %call63 = call noundef nonnull align 8 dereferenceable(8) ptr @_ZNSolsEd(ptr noundef nonnull align 8 dereferenceable(8) %call61, double noundef %21)
  %vtable64 = load ptr, ptr %t, align 8
  %vfn65 = getelementptr inbounds i8, ptr %vtable64, i64 176
  %22 = load ptr, ptr %vfn65, align 8
  %call66 = call noundef zeroext i1 %22(ptr noundef nonnull align 8 dereferenceable(8) %t, ptr noundef nonnull align 8 dereferenceable(24) %values)
  br i1 %call66, label %if.then, label %if.end

if.then:                                          ; preds = %entry
  %call67 = call noundef nonnull align 8 dereferenceable(8) ptr @_ZStlsISt11char_traitsIcEERSt13basic_ostreamIcT_ES5_PKc(ptr noundef nonnull align 8 dereferenceable(8) %os, ptr noundef nonnull @.str.11)
  %23 = load double, ptr %values, align 16
  %call69 = call noundef nonnull align 8 dereferenceable(8) ptr @_ZNSolsEd(ptr noundef nonnull align 8 dereferenceable(8) %call67, double noundef %23)
  %call70 = call noundef nonnull align 8 dereferenceable(8) ptr @_ZStlsISt11char_traitsIcEERSt13basic_ostreamIcT_ES5_PKc(ptr noundef nonnull align 8 dereferenceable(8) %call69, ptr noundef nonnull @.str.6)
  %24 = load double, ptr %arrayidx15, align 8
  %call72 = call noundef nonnull align 8 dereferenceable(8) ptr @_ZNSolsEd(ptr noundef nonnull align 8 dereferenceable(8) %call70, double noundef %24)
  %call73 = call noundef nonnull align 8 dereferenceable(8) ptr @_ZStlsISt11char_traitsIcEERSt13basic_ostreamIcT_ES5_PKc(ptr noundef nonnull align 8 dereferenceable(8) %call72, ptr noundef nonnull @.str.6)
  %25 = load double, ptr %arrayidx18, align 16
  %call75 = call noundef nonnull align 8 dereferenceable(8) ptr @_ZNSolsEd(ptr noundef nonnull align 8 dereferenceable(8) %call73, double noundef %25)
  br label %if.end

if.end:                                           ; preds = %if.then, %entry
  %call76 = call noundef nonnull align 8 dereferenceable(8) ptr @_ZStlsISt11char_traitsIcEERSt13basic_ostreamIcT_ES5_PKc(ptr noundef nonnull align 8 dereferenceable(8) %os, ptr noundef nonnull @.str.12)
  ret ptr %os
}